target datalayout = "e-m:e-p270:32:32-p271:32:32-p272:64:64-i64:64-i128:128-f80:128-n8:16:32:64-S128"
target triple = "x86_64-pc-linux-gnu"

%"class.llvm::StringRef" = type { ptr, i64 }
%"class.llvm::SmallVectorBase.4" = type { ptr, i32, i32 }
%"class.llvm::SmallVector.124" = type { %"class.llvm::SmallVectorImpl.125", %"struct.llvm::SmallVectorStorage.128" }
%"class.llvm::SmallVectorImpl.125" = type { %"class.llvm::SmallVectorTemplateBase.126" }
%"class.llvm::SmallVectorTemplateBase.126" = type { %"class.llvm::SmallVectorTemplateCommon.127" }
%"class.llvm::SmallVectorTemplateCommon.127" = type { %"class.llvm::SmallVectorBase.4" }
%"struct.llvm::SmallVectorStorage.128" = type { [24 x i8] }
%"class.llvm::SmallVector.570" = type { %"class.llvm::SmallVectorImpl.571", %"struct.llvm::SmallVectorStorage.574" }
%"class.llvm::SmallVectorImpl.571" = type { %"class.llvm::SmallVectorTemplateBase.572" }
%"class.llvm::SmallVectorTemplateBase.572" = type { %"class.llvm::SmallVectorTemplateCommon.573" }
%"class.llvm::SmallVectorTemplateCommon.573" = type { %"class.llvm::SmallVectorBase.4" }
%"struct.llvm::SmallVectorStorage.574" = type { [160 x i8] }
%"class.clang::driver::Action" = type { ptr, i32, i32, %"class.llvm::SmallVector.124", i8, i32, i32, ptr, ptr }
%class.anon.583 = type { ptr, ptr, ptr, ptr, ptr, ptr }
%"class.clang::driver::InputInfo" = type { %union.anon.586, i32, ptr, i32, ptr }
%union.anon.586 = type { ptr }

; Function Attrs: mustprogress nounwind uwtable
define linkonce_odr hidden noundef ptr @_ZNK4llvm25SmallVectorTemplateCommonIN5clang6driver9InputInfoEvE10getFirstElEv(ptr noundef nonnull align 8 dereferenceable(16) %0) #0 comdat align 2 {
  %2 = alloca ptr, align 8
  store ptr %0, ptr %2, align 8
  %3 = load ptr, ptr %2, align 8
  %4 = getelementptr inbounds i8, ptr %3, i64 16
  ret ptr %4
}

; Function Attrs: mustprogress nounwind uwtable
define linkonce_odr hidden noundef zeroext i1 @_ZNK4llvm25SmallVectorTemplateCommonIN5clang6driver9InputInfoEvE7isSmallEv(ptr noundef nonnull align 8 dereferenceable(16) %0) #0 comdat align 2 {
  %2 = alloca ptr, align 8
  store ptr %0, ptr %2, align 8
  %3 = load ptr, ptr %2, align 8
  %4 = getelementptr inbounds nuw %"class.llvm::SmallVectorBase.4", ptr %3, i32 0, i32 0
  %5 = load ptr, ptr %4, align 8
  %6 = call noundef ptr @_ZNK4llvm25SmallVectorTemplateCommonIN5clang6driver9InputInfoEvE10getFirstElEv(ptr noundef nonnull align 8 dereferenceable(16) %3)
  %7 = icmp eq ptr %5, %6
  ret i1 %7
}

; Function Attrs: mustprogress nounwind uwtable
define linkonce_odr hidden void @_ZN4llvm15SmallVectorImplIN5clang6driver9InputInfoEED2Ev(ptr noundef nonnull align 8 dereferenceable(16) %0) unnamed_addr #0 comdat align 2 {
  %2 = alloca ptr, align 8
  store ptr %0, ptr %2, align 8
  %3 = load ptr, ptr %2, align 8
  %4 = call noundef zeroext i1 @_ZNK4llvm25SmallVectorTemplateCommonIN5clang6driver9InputInfoEvE7isSmallEv(ptr noundef nonnull align 8 dereferenceable(16) %3)
  br i1 %4, label %7, label %5

5:                                                ; preds = %1
  %6 = call noundef ptr @_ZN4llvm25SmallVectorTemplateCommonIN5clang6driver9InputInfoEvE5beginEv(ptr noundef nonnull align 8 dereferenceable(16) %3)
  call void @free(ptr noundef %6) #4
  br label %7

7:                                                ; preds = %5, %1
  ret void
}

; Function Attrs: mustprogress nounwind uwtable
define linkonce_odr hidden void @_ZN4llvm23SmallVectorTemplateBaseIN5clang6driver9InputInfoELb1EE13destroy_rangeEPS3_S5_(ptr noundef %0, ptr noundef %1) #0 comdat align 2 {
  %3 = alloca ptr, align 8
  %4 = alloca ptr, align 8
  store ptr %0, ptr %3, align 8
  store ptr %1, ptr %4, align 8
  ret void
}

; Function Attrs: mustprogress nounwind uwtable
define linkonce_odr hidden noundef ptr @_ZN4llvm25SmallVectorTemplateCommonIN5clang6driver9InputInfoEvE3endEv(ptr noundef nonnull align 8 dereferenceable(16) %0) #0 comdat align 2 {
  %2 = alloca ptr, align 8
  store ptr %0, ptr %2, align 8
  %3 = load ptr, ptr %2, align 8
  %4 = call noundef ptr @_ZN4llvm25SmallVectorTemplateCommonIN5clang6driver9InputInfoEvE5beginEv(ptr noundef nonnull align 8 dereferenceable(16) %3)
  %5 = call noundef i64 @_ZNK4llvm15SmallVectorBaseIjE4sizeEv(ptr noundef nonnull align 8 dereferenceable(16) %3)
  %6 = getelementptr inbounds %"class.clang::driver::InputInfo", ptr %4, i64 %5
  ret ptr %6
}

; Function Attrs: mustprogress nounwind uwtable
define linkonce_odr hidden noundef ptr @_ZN4llvm25SmallVectorTemplateCommonIN5clang6driver9InputInfoEvE5beginEv(ptr noundef nonnull align 8 dereferenceable(16) %0) #0 comdat align 2 {
  %2 = alloca ptr, align 8
  store ptr %0, ptr %2, align 8
  %3 = load ptr, ptr %2, align 8
  %4 = getelementptr inbounds nuw %"class.llvm::SmallVectorBase.4", ptr %3, i32 0, i32 0
  %5 = load ptr, ptr %4, align 8
  ret ptr %5
}

; Function Attrs: mustprogress nounwind uwtable
define linkonce_odr hidden noundef ptr @_ZNK4llvm25SmallVectorTemplateCommonIN5clang6driver9InputInfoEvE3endEv(ptr noundef nonnull align 8 dereferenceable(16) %0) #0 comdat align 2 {
  %2 = alloca ptr, align 8
  store ptr %0, ptr %2, align 8
  %3 = load ptr, ptr %2, align 8
  %4 = call noundef ptr @_ZNK4llvm25SmallVectorTemplateCommonIN5clang6driver9InputInfoEvE5beginEv(ptr noundef nonnull align 8 dereferenceable(16) %3)
  %5 = call noundef i64 @_ZNK4llvm15SmallVectorBaseIjE4sizeEv(ptr noundef nonnull align 8 dereferenceable(16) %3)
  %6 = getelementptr inbounds %"class.clang::driver::InputInfo", ptr %4, i64 %5
  ret ptr %6
}

; Function Attrs: mustprogress nounwind uwtable
define linkonce_odr hidden noundef ptr @_ZNK4llvm25SmallVectorTemplateCommonIN5clang6driver9InputInfoEvE5beginEv(ptr noundef nonnull align 8 dereferenceable(16) %0) #0 comdat align 2 {
  %2 = alloca ptr, align 8
  store ptr %0, ptr %2, align 8
  %3 = load ptr, ptr %2, align 8
  %4 = getelementptr inbounds nuw %"class.llvm::SmallVectorBase.4", ptr %3, i32 0, i32 0
  %5 = load ptr, ptr %4, align 8
  ret ptr %5
}

; Function Attrs: mustprogress nounwind uwtable
define linkonce_odr hidden noundef i64 @_ZNSt11char_traitsIcE6lengthEPKc(ptr noundef %0) #0 comdat align 2 {
  %2 = alloca ptr, align 8
  store ptr %0, ptr %2, align 8
  %3 = load ptr, ptr %2, align 8
  %4 = call i64 @strlen(ptr noundef %3) #4
  ret i64 %4
}

; Function Attrs: mustprogress nounwind uwtable
define linkonce_odr hidden void @_ZN4llvm11SmallVectorIN5clang6driver9InputInfoELj4EED2Ev(ptr noundef nonnull align 8 dereferenceable(176) %0) unnamed_addr #0 comdat align 2 {
  %2 = alloca ptr, align 8
  store ptr %0, ptr %2, align 8
  %3 = load ptr, ptr %2, align 8
  %4 = call noundef ptr @_ZN4llvm25SmallVectorTemplateCommonIN5clang6driver9InputInfoEvE5beginEv(ptr noundef nonnull align 8 dereferenceable(16) %3)
  %5 = call noundef ptr @_ZN4llvm25SmallVectorTemplateCommonIN5clang6driver9InputInfoEvE3endEv(ptr noundef nonnull align 8 dereferenceable(16) %3)
  call void @_ZN4llvm23SmallVectorTemplateBaseIN5clang6driver9InputInfoELb1EE13destroy_rangeEPS3_S5_(ptr noundef %4, ptr noundef %5)
  call void @_ZN4llvm15SmallVectorImplIN5clang6driver9InputInfoEED2Ev(ptr noundef nonnull align 8 dereferenceable(16) %3) #4
  ret void
}

; Function Attrs: mustprogress nounwind uwtable
define linkonce_odr hidden void @_ZN4llvm15SmallVectorImplIN5clang6driver9InputInfoEE6appendERKS4_(ptr noundef nonnull align 8 dereferenceable(16) %0, ptr noundef nonnull align 8 dereferenceable(16) %1) #0 comdat align 2 {
  %3 = alloca ptr, align 8
  %4 = alloca ptr, align 8
  store ptr %0, ptr %3, align 8
  store ptr %1, ptr %4, align 8
  %5 = load ptr, ptr %3, align 8
  %6 = load ptr, ptr %4, align 8
  %7 = call noundef ptr @_ZNK4llvm25SmallVectorTemplateCommonIN5clang6driver9InputInfoEvE5beginEv(ptr noundef nonnull align 8 dereferenceable(16) %6)
  %8 = load ptr, ptr %4, align 8
  %9 = call noundef ptr @_ZNK4llvm25SmallVectorTemplateCommonIN5clang6driver9InputInfoEvE3endEv(ptr noundef nonnull align 8 dereferenceable(16) %8)
  call void @_ZN4llvm15SmallVectorImplIN5clang6driver9InputInfoEE6appendIPKS3_vEEvT_S8_(ptr noundef nonnull align 8 dereferenceable(16) %5, ptr noundef %7, ptr noundef %9)
  ret void
}

; Function Attrs: mustprogress nounwind uwtable
define linkonce_odr hidden noundef i32 @_ZNK5clang6driver6Action23getOffloadingDeviceKindEv(ptr noundef nonnull align 8 dereferenceable(88) %0) #0 comdat align 2 {
  %2 = alloca ptr, align 8
  store ptr %0, ptr %2, align 8
  %3 = load ptr, ptr %2, align 8
  %4 = getelementptr inbounds nuw %"class.clang::driver::Action", ptr %3, i32 0, i32 6
  %5 = load i32, ptr %4, align 8
  ret i32 %5
}

; Function Attrs: mustprogress nounwind uwtable
define linkonce_odr hidden void @_ZN4llvm9StringRefC2EPKc(ptr noundef nonnull align 8 dereferenceable(16) %0, ptr noundef %1) unnamed_addr #0 comdat align 2 {
  %3 = alloca ptr, align 8
  %4 = alloca ptr, align 8
  store ptr %0, ptr %3, align 8
  store ptr %1, ptr %4, align 8
  %5 = load ptr, ptr %3, align 8
  %6 = getelementptr inbounds nuw %"class.llvm::StringRef", ptr %5, i32 0, i32 0
  %7 = load ptr, ptr %4, align 8
  store ptr %7, ptr %6, align 8
  %8 = getelementptr inbounds nuw %"class.llvm::StringRef", ptr %5, i32 0, i32 1
  %9 = load ptr, ptr %4, align 8
  %10 = icmp ne ptr %9, null
  br i1 %10, label %11, label %14

11:                                               ; preds = %2
  %12 = load ptr, ptr %4, align 8
  %13 = call noundef i64 @_ZNSt11char_traitsIcE6lengthEPKc(ptr noundef %12)
  br label %15

14:                                               ; preds = %2
  br label %15

15:                                               ; preds = %14, %11
  %16 = phi i64 [ %13, %11 ], [ 0, %14 ]
  store i64 %16, ptr %8, align 8
  ret void
}

; Function Attrs: mustprogress nounwind uwtable
define internal void @"_ZZNK5clang6driver6Driver25BuildJobsForActionNoCacheERNS0_11CompilationEPKNS0_6ActionEPKNS0_9ToolChainEN4llvm9StringRefEbbPKcRSt3mapISt4pairIS6_NSt7__cxx1112basic_stringIcSt11char_traitsIcESaIcEEEENSA_11SmallVectorINS0_9InputInfoELj4EEESt4lessISM_ESaISF_IKSM_SP_EEENS4_11OffloadKindEENK3$_0clEPS4_S9_SD_"(ptr noundef nonnull align 8 dereferenceable(48) %0, ptr noundef %1, ptr noundef %2, ptr noundef %3) #0 align 2 {
  %5 = alloca ptr, align 8
  %6 = alloca ptr, align 8
  %7 = alloca ptr, align 8
  %8 = alloca ptr, align 8
  %9 = alloca %"class.llvm::SmallVector.570", align 8
  %10 = alloca %"class.llvm::StringRef", align 8
  store ptr %0, ptr %5, align 8
  store ptr %1, ptr %6, align 8
  store ptr %2, ptr %7, align 8
  store ptr %3, ptr %8, align 8
  %11 = load ptr, ptr %5, align 8
  %12 = getelementptr inbounds nuw %class.anon.583, ptr %11, i32 0, i32 1
  %13 = load ptr, ptr %12, align 8
  %14 = getelementptr inbounds nuw %class.anon.583, ptr %11, i32 0, i32 0
  %15 = load ptr, ptr %14, align 8
  %16 = getelementptr inbounds nuw %class.anon.583, ptr %11, i32 0, i32 2
  %17 = load ptr, ptr %16, align 8
  %18 = load ptr, ptr %6, align 8
  %19 = load ptr, ptr %7, align 8
  %20 = load ptr, ptr %8, align 8
  call void @_ZN4llvm9StringRefC2EPKc(ptr noundef nonnull align 8 dereferenceable(16) %10, ptr noundef %20)
  %21 = getelementptr inbounds nuw %class.anon.583, ptr %11, i32 0, i32 3
  %22 = load ptr, ptr %21, align 8
  %23 = load i8, ptr %22, align 1
  %24 = trunc i8 %23 to i1
  %25 = load ptr, ptr %8, align 8
  %26 = icmp ne ptr %25, null
  %27 = xor i1 %26, true
  %28 = xor i1 %27, true
  %29 = getelementptr inbounds nuw %class.anon.583, ptr %11, i32 0, i32 4
  %30 = load ptr, ptr %29, align 8
  %31 = load ptr, ptr %30, align 8
  %32 = getelementptr inbounds nuw %class.anon.583, ptr %11, i32 0, i32 5
  %33 = load ptr, ptr %32, align 8
  %34 = load ptr, ptr %6, align 8
  %35 = call noundef i32 @_ZNK5clang6driver6Action23getOffloadingDeviceKindEv(ptr noundef nonnull align 8 dereferenceable(88) %34)
  call void @_ZNK5clang6driver6Driver18BuildJobsForActionERNS0_11CompilationEPKNS0_6ActionEPKNS0_9ToolChainEN4llvm9StringRefEbbPKcRSt3mapISt4pairIS6_NSt7__cxx1112basic_stringIcSt11char_traitsIcESaIcEEEENSA_11SmallVectorINS0_9InputInfoELj4EEESt4lessISM_ESaISF_IKSM_SP_EEENS4_11OffloadKindE(ptr dead_on_unwind writable sret(%"class.llvm::SmallVector.570") align 8 %9, ptr noundef nonnull align 8 dereferenceable(1192) %13, ptr noundef nonnull align 8 dereferenceable(523) %17, ptr noundef %18, ptr noundef %19, ptr noundef byval(%"class.llvm::StringRef") align 8 %10, i1 noundef zeroext %24, i1 noundef zeroext %28, ptr noundef %31, ptr noundef nonnull align 8 dereferenceable(48) %33, i32 noundef %35)
  call void @_ZN4llvm15SmallVectorImplIN5clang6driver9InputInfoEE6appendERKS4_(ptr noundef nonnull align 8 dereferenceable(16) %15, ptr noundef nonnull align 8 dereferenceable(16) %9)
  call void @_ZN4llvm11SmallVectorIN5clang6driver9InputInfoELj4EED2Ev(ptr noundef nonnull align 8 dereferenceable(176) %9) #4
  ret void
}

; Function Attrs: mustprogress nounwind uwtable
define internal void @"_ZN4llvm12function_refIFvPN5clang6driver6ActionEPKNS2_9ToolChainEPKcEE11callback_fnIZNKS2_6Driver25BuildJobsForActionNoCacheERNS2_11CompilationEPKS3_S7_NS_9StringRefEbbS9_RSt3mapISt4pairISH_NSt7__cxx1112basic_stringIcSt11char_traitsIcESaIcEEEENS_11SmallVectorINS2_9InputInfoELj4EEESt4lessISR_ESaISK_IKSR_SU_EEENS3_11OffloadKindEE3$_0EEvlS4_S7_S9_"(i64 noundef %0, ptr noundef %1, ptr noundef %2, ptr noundef %3) #0 align 2 {
  %5 = alloca i64, align 8
  %6 = alloca ptr, align 8
  %7 = alloca ptr, align 8
  %8 = alloca ptr, align 8
  store i64 %0, ptr %5, align 8
  store ptr %1, ptr %6, align 8
  store ptr %2, ptr %7, align 8
  store ptr %3, ptr %8, align 8
  %9 = load i64, ptr %5, align 8
  %10 = inttoptr i64 %9 to ptr
  %11 = load ptr, ptr %6, align 8
  %12 = load ptr, ptr %7, align 8
  %13 = load ptr, ptr %8, align 8
  call void @"_ZZNK5clang6driver6Driver25BuildJobsForActionNoCacheERNS0_11CompilationEPKNS0_6ActionEPKNS0_9ToolChainEN4llvm9StringRefEbbPKcRSt3mapISt4pairIS6_NSt7__cxx1112basic_stringIcSt11char_traitsIcESaIcEEEENSA_11SmallVectorINS0_9InputInfoELj4EEESt4lessISM_ESaISF_IKSM_SP_EEENS4_11OffloadKindEENK3$_0clEPS4_S9_SD_"(ptr noundef nonnull align 8 dereferenceable(48) %10, ptr noundef %11, ptr noundef %12, ptr noundef %13)
  ret void
}