; Function Attrs: mustprogress nounwind uwtable
define internal void @"_ZN4llvm12function_refIFvPN5clang6driver6ActionEPKNS2_9ToolChainEPKcEE11callback_fnIZNKS2_6Driver25BuildJobsForActionNoCacheERNS2_11CompilationEPKS3_S7_NS_9StringRefEbbS9_RSt3mapISt4pairISH_NSt7__cxx1112basic_stringIcSt11char_traitsIcESaIcEEEENS_11SmallVectorINS2_9InputInfoELj4EEESt4lessISR_ESaISK_IKSR_SU_EEENS3_11OffloadKindEE3$_0EEvlS4_S7_S9_"(i64 noundef %0, ptr noundef %1, ptr noundef %2, ptr noundef %3) #0 align 2 {
  %5 = alloca %"class.llvm::SmallVector.570", align 8
  %6 = alloca %"class.llvm::StringRef", align 8
  %7 = inttoptr i64 %0 to ptr
  call void @llvm.lifetime.start.p0(i64 176, ptr nonnull %5)
  call void @llvm.lifetime.start.p0(i64 16, ptr nonnull %6)
  %8 = getelementptr inbounds nuw i8, ptr %7, i64 8
  %9 = load ptr, ptr %8, align 8
  %10 = load ptr, ptr %7, align 8
  %11 = getelementptr inbounds nuw i8, ptr %7, i64 16
  %12 = load ptr, ptr %11, align 8
  store ptr %3, ptr %6, align 8
  %.not.i.i = icmp eq ptr %3, null
  br i1 %.not.i.i, label %_ZN4llvm9StringRefC2EPKc.exit.i, label %13

13:                                               ; preds = %4
  %14 = tail call noundef i64 @strlen(ptr noundef nonnull dereferenceable(1) %3) #30
  br label %_ZN4llvm9StringRefC2EPKc.exit.i

_ZN4llvm9StringRefC2EPKc.exit.i:                  ; preds = %13, %4
  %15 = phi i64 [ %14, %13 ], [ 0, %4 ]
  %16 = getelementptr inbounds nuw i8, ptr %6, i64 8
  store i64 %15, ptr %16, align 8
  %17 = getelementptr inbounds nuw i8, ptr %7, i64 24
  %18 = load ptr, ptr %17, align 8
  %19 = load i8, ptr %18, align 1
  %20 = trunc i8 %19 to i1
  %21 = icmp ne ptr %3, null
  %22 = getelementptr inbounds nuw i8, ptr %7, i64 32
  %23 = load ptr, ptr %22, align 8
  %24 = load ptr, ptr %23, align 8
  %25 = getelementptr inbounds nuw i8, ptr %7, i64 40
  %26 = load ptr, ptr %25, align 8
  %27 = getelementptr inbounds nuw i8, ptr %1, i64 64
  %28 = load i32, ptr %27, align 8
  call void @_ZNK5clang6driver6Driver18BuildJobsForActionERNS0_11CompilationEPKNS0_6ActionEPKNS0_9ToolChainEN4llvm9StringRefEbbPKcRSt3mapISt4pairIS6_NSt7__cxx1112basic_stringIcSt11char_traitsIcESaIcEEEENSA_11SmallVectorINS0_9InputInfoELj4EEESt4lessISM_ESaISF_IKSM_SP_EEENS4_11OffloadKindE(ptr dead_on_unwind nonnull writable sret(%"class.llvm::SmallVector.570") align 8 %5, ptr noundef nonnull align 8 dereferenceable(1192) %9, ptr noundef nonnull align 8 dereferenceable(523) %12, ptr noundef nonnull %1, ptr noundef %2, ptr noundef nonnull byval(%"class.llvm::StringRef") align 8 %6, i1 noundef zeroext %20, i1 noundef zeroext %21, ptr noundef %24, ptr noundef nonnull align 8 dereferenceable(48) %26, i32 noundef %28)
  %29 = load ptr, ptr %5, align 8
  %30 = call noundef i64 @_ZNK4llvm15SmallVectorBaseIjE4sizeEv(ptr noundef nonnull align 8 dereferenceable(16) %5) #30
  %31 = getelementptr inbounds %"class.clang::driver::InputInfo", ptr %29, i64 %30
  call void @_ZN4llvm15SmallVectorImplIN5clang6driver9InputInfoEE6appendIPKS3_vEEvT_S8_(ptr noundef nonnull align 8 dereferenceable(16) %10, ptr noundef %29, ptr noundef %31)
  %32 = call noundef i64 @_ZNK4llvm15SmallVectorBaseIjE4sizeEv(ptr noundef nonnull align 8 dereferenceable(16) %5) #30
  %33 = load ptr, ptr %5, align 8
  %34 = getelementptr inbounds i8, ptr %5, i64 16
  %35 = icmp eq ptr %33, %34
  br i1 %35, label %"_ZZNK5clang6driver6Driver25BuildJobsForActionNoCacheERNS0_11CompilationEPKNS0_6ActionEPKNS0_9ToolChainEN4llvm9StringRefEbbPKcRSt3mapISt4pairIS6_NSt7__cxx1112basic_stringIcSt11char_traitsIcESaIcEEEENSA_11SmallVectorINS0_9InputInfoELj4EEESt4lessISM_ESaISF_IKSM_SP_EEENS4_11OffloadKindEENK3$_0clEPS4_S9_SD_.exit", label %36

36:                                               ; preds = %_ZN4llvm9StringRefC2EPKc.exit.i
  call void @free(ptr noundef %33) #30
  br label %"_ZZNK5clang6driver6Driver25BuildJobsForActionNoCacheERNS0_11CompilationEPKNS0_6ActionEPKNS0_9ToolChainEN4llvm9StringRefEbbPKcRSt3mapISt4pairIS6_NSt7__cxx1112basic_stringIcSt11char_traitsIcESaIcEEEENSA_11SmallVectorINS0_9InputInfoELj4EEESt4lessISM_ESaISF_IKSM_SP_EEENS4_11OffloadKindEENK3$_0clEPS4_S9_SD_.exit"

"_ZZNK5clang6driver6Driver25BuildJobsForActionNoCacheERNS0_11CompilationEPKNS0_6ActionEPKNS0_9ToolChainEN4llvm9StringRefEbbPKcRSt3mapISt4pairIS6_NSt7__cxx1112basic_stringIcSt11char_traitsIcESaIcEEEENSA_11SmallVectorINS0_9InputInfoELj4EEESt4lessISM_ESaISF_IKSM_SP_EEENS4_11OffloadKindEENK3$_0clEPS4_S9_SD_.exit": ; preds = %_ZN4llvm9StringRefC2EPKc.exit.i, %36
  call void @llvm.lifetime.end.p0(i64 176, ptr nonnull %5)
  call void @llvm.lifetime.end.p0(i64 16, ptr nonnull %6)
  ret void
}